; Function Attrs: mustprogress uwtable
define i32 @ucurr_getDefaultFractionDigitsForUsage_77(ptr noundef %0, i32 noundef %1, ptr noundef %2) local_unnamed_addr #1 {
  %4 = load i32, ptr %2, align 4, !tbaa !13
  %5 = icmp sgt i32 %4, 0
  br i1 %5, label %15, label %6

6:                                                ; preds = %3
  switch i32 %1, label %14 [
    i32 0, label %7
    i32 1, label %10
  ]

7:                                                ; preds = %6
  %8 = tail call fastcc noundef ptr @_ZL13_findMetaDataPKDsR10UErrorCode(ptr noundef %0, ptr noundef nonnull align 4 dereferenceable(4) %2)
  %9 = load i32, ptr %8, align 4, !tbaa !12
  br label %15

10:                                               ; preds = %6
  %11 = tail call fastcc noundef ptr @_ZL13_findMetaDataPKDsR10UErrorCode(ptr noundef %0, ptr noundef nonnull align 4 dereferenceable(4) %2)
  %12 = getelementptr inbounds nuw i8, ptr %11, i64 8
  %13 = load i32, ptr %12, align 4, !tbaa !12
  br label %15

14:                                               ; preds = %6
  store i32 16, ptr %2, align 4, !tbaa !13
  br label %15

15:                                               ; preds = %7, %10, %14, %3
  %.0 = phi i32 [ 0, %14 ], [ %13, %10 ], [ %9, %7 ], [ 0, %3 ]
  ret i32 %.0
}